; Function Attrs: mustprogress nounwind uwtable
define internal void @_ZN12_GLOBAL__N_140CUnescapeTest_Unescapes1CharHexNull_TestD0Ev(ptr noundef nonnull align 8 dereferenceable(48) %this) unnamed_addr #7 align 2 {
entry:
  store ptr getelementptr inbounds ({ [8 x ptr] }, ptr @_ZTVN12_GLOBAL__N_113CUnescapeTestE, i64 0, i32 0, i64 2), ptr %this, align 8
  %result_string_.i.i = getelementptr inbounds i8, ptr %this, i64 16
  tail call void @_ZNSt7__cxx1112basic_stringIcSt11char_traitsIcESaIcEED1Ev(ptr noundef nonnull align 8 dereferenceable(32) %result_string_.i.i) #15
  tail call void @_ZN7testing4TestD2Ev(ptr noundef nonnull align 8 dereferenceable(16) %this) #15
  tail call void @_ZdlPv(ptr noundef nonnull %this) #16
  ret void
}